; Function Attrs: mustprogress nounwind willreturn uwtable
define void @Ssc_GiaResetSimInfo(ptr noundef captures(none) %0) local_unnamed_addr #4 {
  %2 = getelementptr inbounds nuw i8, ptr %0, i64 832
  %3 = load ptr, ptr %2, align 8, !tbaa !47
  %4 = icmp eq ptr %3, null
  br i1 %4, label %5, label %._crit_edge

._crit_edge:                                      ; preds = %1
  %.pre = load i32, ptr %3, align 8, !tbaa !13
  br label %6

5:                                                ; preds = %1
  %calloc.i = tail call noalias noundef dereferenceable_or_null(16) ptr @calloc(i64 1, i64 16)
  store ptr %calloc.i, ptr %2, align 8, !tbaa !47
  br label %6

6:                                                ; preds = %._crit_edge, %5
  %7 = phi i32 [ 0, %5 ], [ %.pre, %._crit_edge ]
  %8 = phi ptr [ %calloc.i, %5 ], [ %3, %._crit_edge ]
  %9 = getelementptr inbounds nuw i8, ptr %0, i64 848
  %10 = load ptr, ptr %9, align 8, !tbaa !35
  %11 = getelementptr i8, ptr %10, i64 4
  %.val.i = load i32, ptr %11, align 4, !tbaa !3
  %12 = getelementptr i8, ptr %0, i64 16
  %.val2.i = load i32, ptr %12, align 8, !tbaa !39
  %13 = getelementptr i8, ptr %0, i64 64
  %.val3.i = load ptr, ptr %13, align 8, !tbaa !36
  %14 = getelementptr i8, ptr %.val3.i, i64 4
  %.val3.val.i = load i32, ptr %14, align 4, !tbaa !37
  %15 = sub nsw i32 %.val3.val.i, %.val2.i
  %16 = sdiv i32 %.val.i, %15
  %17 = getelementptr i8, ptr %0, i64 24
  %.val = load i32, ptr %17, align 8, !tbaa !53
  %18 = mul nsw i32 %.val, %16
  %.not.i.i = icmp slt i32 %7, %18
  br i1 %.not.i.i, label %19, label %Vec_WrdGrow.exit.i

19:                                               ; preds = %6
  %20 = getelementptr inbounds nuw i8, ptr %8, i64 8
  %21 = load ptr, ptr %20, align 8, !tbaa !10
  %.not9.i.i = icmp eq ptr %21, null
  %22 = sext i32 %18 to i64
  %23 = shl nsw i64 %22, 3
  br i1 %.not9.i.i, label %26, label %24

24:                                               ; preds = %19
  %25 = tail call ptr @realloc(ptr noundef nonnull %21, i64 noundef %23) #15
  br label %28

26:                                               ; preds = %19
  %27 = tail call noalias ptr @malloc(i64 noundef %23) #16
  br label %28

28:                                               ; preds = %26, %24
  %29 = phi ptr [ %25, %24 ], [ %27, %26 ]
  store ptr %29, ptr %20, align 8, !tbaa !10
  store i32 %18, ptr %8, align 8, !tbaa !13
  br label %Vec_WrdGrow.exit.i

Vec_WrdGrow.exit.i:                               ; preds = %28, %6
  %30 = icmp sgt i32 %18, 0
  br i1 %30, label %.lr.ph.i, label %Vec_WrdFill.exit

.lr.ph.i:                                         ; preds = %Vec_WrdGrow.exit.i
  %31 = getelementptr inbounds nuw i8, ptr %8, i64 8
  %32 = load ptr, ptr %31, align 8, !tbaa !10
  %33 = zext nneg i32 %18 to i64
  %34 = shl nuw nsw i64 %33, 3
  tail call void @llvm.memset.p0.i64(ptr align 8 %32, i8 0, i64 %34, i1 false), !tbaa !38
  br label %Vec_WrdFill.exit

Vec_WrdFill.exit:                                 ; preds = %Vec_WrdGrow.exit.i, %.lr.ph.i
  %35 = getelementptr inbounds nuw i8, ptr %8, i64 4
  store i32 %18, ptr %35, align 4, !tbaa !3
  ret void
}